; Function Attrs: nounwind uwtable
define internal range(i32 -1, 1) i32 @type_modified_callback(ptr noundef %0) #0 {
  %2 = load ptr, ptr @g_type_modified_events, align 8, !tbaa !21
  %3 = getelementptr i8, ptr %2, i64 8
  %.val = load ptr, ptr %3, align 8, !tbaa !3
  %4 = getelementptr i8, ptr %.val, i64 168
  %.val1 = load i64, ptr %4, align 8, !tbaa !9
  %5 = and i64 %.val1, 33554432
  %.not = icmp eq i64 %5, 0
  br i1 %.not, label %6, label %7

6:                                                ; preds = %1
  tail call void @__assert_fail(ptr noundef nonnull @.str.47, ptr noundef nonnull @.str.32, i32 noundef 181, ptr noundef nonnull @__PRETTY_FUNCTION__.type_modified_callback) #7
  unreachable

7:                                                ; preds = %1
  %8 = tail call i32 @PyList_Append(ptr noundef nonnull %2, ptr noundef %0) #6
  %.lobit = ashr i32 %8, 31
  ret i32 %.lobit
}